; Function Attrs: nounwind uwtable
define ptr @l_Lean_log___at_Lean_Elab_ComputedFields_setComputedFields___spec__1___boxed(ptr noundef %0, ptr noundef %1, ptr noundef %2, ptr noundef %3, ptr noundef %4, ptr noundef %5, ptr noundef %6) local_unnamed_addr #0 {
  %8 = ptrtoint ptr %1 to i64
  %9 = lshr i64 %8, 1
  %10 = trunc i64 %9 to i8
  %11 = and i64 %8, 1
  %.not = icmp eq i64 %11, 0
  br i1 %.not, label %12, label %lean_dec.exit14

12:                                               ; preds = %7
  %13 = load i32, ptr %1, align 4, !tbaa !8
  %14 = icmp sgt i32 %13, 1
  br i1 %14, label %15, label %17, !prof !13

15:                                               ; preds = %12
  %16 = add nsw i32 %13, -1
  store i32 %16, ptr %1, align 4, !tbaa !8
  br label %lean_dec.exit14

17:                                               ; preds = %12
  %.not.i = icmp eq i32 %13, 0
  br i1 %.not.i, label %lean_dec.exit14, label %18

18:                                               ; preds = %17
  tail call void @lean_dec_ref_cold(ptr noundef nonnull %1) #4
  br label %lean_dec.exit14

lean_dec.exit14:                                  ; preds = %18, %17, %15, %7
  %19 = getelementptr inbounds nuw i8, ptr %4, i64 48
  %20 = load ptr, ptr %19, align 8, !tbaa !4
  %21 = ptrtoint ptr %20 to i64
  %22 = and i64 %21, 1
  %.not.i21 = icmp eq i64 %22, 0
  br i1 %.not.i21, label %23, label %lean_inc.exit.i

23:                                               ; preds = %lean_dec.exit14
  %.val.i.i = load i32, ptr %20, align 4, !tbaa !8
  %24 = icmp sgt i32 %.val.i.i, 0
  br i1 %24, label %25, label %27, !prof !13

25:                                               ; preds = %23
  %26 = add nuw i32 %.val.i.i, 1
  store i32 %26, ptr %20, align 4, !tbaa !8
  br label %30

27:                                               ; preds = %23
  %.not.i12.i = icmp eq i32 %.val.i.i, 0
  br i1 %.not.i12.i, label %30, label %28

28:                                               ; preds = %27
  tail call void @lean_inc_ref_cold(ptr noundef nonnull %20) #4
  br label %30

lean_inc.exit.i:                                  ; preds = %lean_dec.exit14
  %29 = tail call ptr @l_Lean_logAt___at_Lean_Elab_ComputedFields_setComputedFields___spec__2(ptr noundef %20, ptr noundef %0, i8 noundef zeroext %10, i8 noundef zeroext 0, ptr noundef %2, ptr noundef %3, ptr noundef nonnull %4, ptr noundef %5, ptr noundef %6)
  br label %l_Lean_log___at_Lean_Elab_ComputedFields_setComputedFields___spec__1.exit

30:                                               ; preds = %28, %27, %25
  %31 = tail call ptr @l_Lean_logAt___at_Lean_Elab_ComputedFields_setComputedFields___spec__2(ptr noundef nonnull %20, ptr noundef %0, i8 noundef zeroext %10, i8 noundef zeroext 0, ptr noundef %2, ptr noundef %3, ptr noundef nonnull %4, ptr noundef %5, ptr noundef %6)
  %32 = load i32, ptr %20, align 4, !tbaa !8
  %33 = icmp sgt i32 %32, 1
  br i1 %33, label %34, label %36, !prof !13

34:                                               ; preds = %30
  %35 = add nsw i32 %32, -1
  store i32 %35, ptr %20, align 4, !tbaa !8
  br label %l_Lean_log___at_Lean_Elab_ComputedFields_setComputedFields___spec__1.exit

36:                                               ; preds = %30
  %.not.i.i = icmp eq i32 %32, 0
  br i1 %.not.i.i, label %l_Lean_log___at_Lean_Elab_ComputedFields_setComputedFields___spec__1.exit, label %37

37:                                               ; preds = %36
  tail call void @lean_dec_ref_cold(ptr noundef nonnull %20) #4
  br label %l_Lean_log___at_Lean_Elab_ComputedFields_setComputedFields___spec__1.exit

l_Lean_log___at_Lean_Elab_ComputedFields_setComputedFields___spec__1.exit: ; preds = %lean_inc.exit.i, %34, %36, %37
  %38 = phi ptr [ %29, %lean_inc.exit.i ], [ %31, %34 ], [ %31, %36 ], [ %31, %37 ]
  %39 = ptrtoint ptr %5 to i64
  %40 = and i64 %39, 1
  %.not22 = icmp eq i64 %40, 0
  br i1 %.not22, label %41, label %lean_dec.exit13

41:                                               ; preds = %l_Lean_log___at_Lean_Elab_ComputedFields_setComputedFields___spec__1.exit
  %42 = load i32, ptr %5, align 4, !tbaa !8
  %43 = icmp sgt i32 %42, 1
  br i1 %43, label %44, label %46, !prof !13

44:                                               ; preds = %41
  %45 = add nsw i32 %42, -1
  store i32 %45, ptr %5, align 4, !tbaa !8
  br label %lean_dec.exit13

46:                                               ; preds = %41
  %.not.i15 = icmp eq i32 %42, 0
  br i1 %.not.i15, label %lean_dec.exit13, label %47

47:                                               ; preds = %46
  tail call void @lean_dec_ref_cold(ptr noundef nonnull %5) #4
  br label %lean_dec.exit13

lean_dec.exit13:                                  ; preds = %47, %46, %44, %l_Lean_log___at_Lean_Elab_ComputedFields_setComputedFields___spec__1.exit
  %48 = ptrtoint ptr %3 to i64
  %49 = and i64 %48, 1
  %.not23 = icmp eq i64 %49, 0
  br i1 %.not23, label %50, label %lean_dec.exit12

50:                                               ; preds = %lean_dec.exit13
  %51 = load i32, ptr %3, align 4, !tbaa !8
  %52 = icmp sgt i32 %51, 1
  br i1 %52, label %53, label %55, !prof !13

53:                                               ; preds = %50
  %54 = add nsw i32 %51, -1
  store i32 %54, ptr %3, align 4, !tbaa !8
  br label %lean_dec.exit12

55:                                               ; preds = %50
  %.not.i17 = icmp eq i32 %51, 0
  br i1 %.not.i17, label %lean_dec.exit12, label %56

56:                                               ; preds = %55
  tail call void @lean_dec_ref_cold(ptr noundef nonnull %3) #4
  br label %lean_dec.exit12

lean_dec.exit12:                                  ; preds = %56, %55, %53, %lean_dec.exit13
  %57 = ptrtoint ptr %2 to i64
  %58 = and i64 %57, 1
  %.not24 = icmp eq i64 %58, 0
  br i1 %.not24, label %59, label %lean_dec.exit

59:                                               ; preds = %lean_dec.exit12
  %60 = load i32, ptr %2, align 4, !tbaa !8
  %61 = icmp sgt i32 %60, 1
  br i1 %61, label %62, label %64, !prof !13

62:                                               ; preds = %59
  %63 = add nsw i32 %60, -1
  store i32 %63, ptr %2, align 4, !tbaa !8
  br label %lean_dec.exit

64:                                               ; preds = %59
  %.not.i19 = icmp eq i32 %60, 0
  br i1 %.not.i19, label %lean_dec.exit, label %65

65:                                               ; preds = %64
  tail call void @lean_dec_ref_cold(ptr noundef nonnull %2) #4
  br label %lean_dec.exit

lean_dec.exit:                                    ; preds = %65, %64, %62, %lean_dec.exit12
  ret ptr %38
}